target datalayout = "e-m:e-p270:32:32-p271:32:32-p272:64:64-i64:64-i128:128-f80:128-n8:16:32:64-S128"
target triple = "x86_64-pc-linux-gnu"

%struct.OSQPVectorf_ = type { ptr, i64 }

; Function Attrs: nounwind uwtable
define double @OSQPVectorf_norm_inf(ptr noundef %0) #0 {
  %2 = alloca ptr, align 8
  %3 = alloca i64, align 8
  %4 = alloca i64, align 8
  %5 = alloca double, align 8
  %6 = alloca double, align 8
  %7 = alloca ptr, align 8
  store ptr %0, ptr %2, align 8
  %8 = load ptr, ptr %2, align 8
  %9 = getelementptr inbounds %struct.OSQPVectorf_, ptr %8, i32 0, i32 1
  %10 = load i64, ptr %9, align 8
  store i64 %10, ptr %4, align 8
  store double 0.000000e+00, ptr %6, align 8
  %11 = load ptr, ptr %2, align 8
  %12 = getelementptr inbounds %struct.OSQPVectorf_, ptr %11, i32 0, i32 0
  %13 = load ptr, ptr %12, align 8
  store ptr %13, ptr %7, align 8
  store i64 0, ptr %3, align 8
  br label %14

14:                                               ; preds = %43, %1
  %15 = load i64, ptr %3, align 8
  %16 = load i64, ptr %4, align 8
  %17 = icmp slt i64 %15, %16
  br i1 %17, label %18, label %46

18:                                               ; preds = %14
  %19 = load ptr, ptr %7, align 8
  %20 = load i64, ptr %3, align 8
  %21 = getelementptr inbounds double, ptr %19, i64 %20
  %22 = load double, ptr %21, align 8
  %23 = fcmp olt double %22, 0.000000e+00
  br i1 %23, label %24, label %30

24:                                               ; preds = %18
  %25 = load ptr, ptr %7, align 8
  %26 = load i64, ptr %3, align 8
  %27 = getelementptr inbounds double, ptr %25, i64 %26
  %28 = load double, ptr %27, align 8
  %29 = fneg double %28
  br label %35

30:                                               ; preds = %18
  %31 = load ptr, ptr %7, align 8
  %32 = load i64, ptr %3, align 8
  %33 = getelementptr inbounds double, ptr %31, i64 %32
  %34 = load double, ptr %33, align 8
  br label %35

35:                                               ; preds = %30, %24
  %36 = phi double [ %29, %24 ], [ %34, %30 ]
  store double %36, ptr %5, align 8
  %37 = load double, ptr %5, align 8
  %38 = load double, ptr %6, align 8
  %39 = fcmp ogt double %37, %38
  br i1 %39, label %40, label %42

40:                                               ; preds = %35
  %41 = load double, ptr %5, align 8
  store double %41, ptr %6, align 8
  br label %42

42:                                               ; preds = %40, %35
  br label %43

43:                                               ; preds = %42
  %44 = load i64, ptr %3, align 8
  %45 = add nsw i64 %44, 1
  store i64 %45, ptr %3, align 8
  br label %14, !llvm.loop !28

46:                                               ; preds = %14
  %47 = load double, ptr %6, align 8
  ret double %47
}