; Function Attrs: nofree norecurse nosync nounwind memory(read, inaccessiblemem: none) uwtable
define double @OSQPVectorf_norm_inf(ptr nocapture noundef readonly %0) local_unnamed_addr #0 {
  %2 = getelementptr inbounds i8, ptr %0, i64 8
  %3 = load i64, ptr %2, align 8
  %4 = load ptr, ptr %0, align 8
  %5 = icmp sgt i64 %3, 0
  br i1 %5, label %.lr.ph, label %._crit_edge

.lr.ph:                                           ; preds = %1, %.lr.ph
  %.019 = phi i64 [ %12, %.lr.ph ], [ 0, %1 ]
  %.01418 = phi double [ %.1, %.lr.ph ], [ 0.000000e+00, %1 ]
  %6 = getelementptr inbounds double, ptr %4, i64 %.019
  %7 = load double, ptr %6, align 8
  %8 = fcmp olt double %7, 0.000000e+00
  %9 = fneg double %7
  %10 = select i1 %8, double %9, double %7
  %11 = fcmp ogt double %10, %.01418
  %.1 = select i1 %11, double %10, double %.01418
  %12 = add nuw nsw i64 %.019, 1
  %exitcond.not = icmp eq i64 %12, %3
  br i1 %exitcond.not, label %._crit_edge, label %.lr.ph, !llvm.loop !28

._crit_edge:                                      ; preds = %.lr.ph, %1
  %.014.lcssa = phi double [ 0.000000e+00, %1 ], [ %.1, %.lr.ph ]
  ret double %.014.lcssa
}